target datalayout = "e-m:e-p270:32:32-p271:32:32-p272:64:64-i64:64-i128:128-f80:128-n8:16:32:64-S128"
target triple = "x86_64-pc-linux-gnu"

%struct._exr_encode_pipeline = type { i64, ptr, i16, i16, i32, ptr, %struct.exr_chunk_info_t, ptr, ptr, i64, i64, ptr, i64, ptr, i64, i64, ptr, i64, i64, ptr, i64, ptr, i64, ptr, ptr, ptr, ptr, ptr, ptr, [5 x %struct.exr_coding_channel_info_t] }
%struct.exr_chunk_info_t = type { i32, i32, i32, i32, i32, i8, i8, i8, i8, i64, i64, i64, i64, i64 }
%struct.exr_coding_channel_info_t = type { ptr, i32, i32, i32, i32, i8, i8, i16, i16, i16, i32, i32, %union.anon }
%union.anon = type { ptr }
%struct._priv_exr_context_t = type { i8, i8, i8, i8, i8, i8, i8, i8, %struct.exr_attr_string_t, %struct.exr_attr_string_t, ptr, ptr, ptr, ptr, ptr, ptr, ptr, ptr, i32, i32, i32, i32, i32, float, ptr, ptr, ptr, i64, ptr, ptr, i64, i32, i32, i32, i32, %struct._priv_exr_part_t, ptr, ptr, %struct.exr_attribute_list, %union.pthread_mutex_t, i8, i8, [2 x i8], i32 }
%struct.exr_attr_string_t = type { i32, i32, ptr }
%struct._priv_exr_part_t = type { i32, i32, %struct.exr_attribute_list, ptr, ptr, ptr, ptr, ptr, ptr, ptr, ptr, ptr, ptr, ptr, ptr, ptr, ptr, %struct.exr_attr_box2i_t, %struct.exr_attr_box2i_t, i32, i32, i32, float, i32, i32, ptr, ptr, ptr, ptr, i64, i16, i16, i32, i64, i64 }
%struct.exr_attr_box2i_t = type { %struct.exr_attr_v2i_t, %struct.exr_attr_v2i_t }
%struct.exr_attr_v2i_t = type { i32, i32 }
%struct.exr_attribute_list = type { i32, i32, ptr, ptr }
%union.pthread_mutex_t = type { %struct.__pthread_mutex_s }
%struct.__pthread_mutex_s = type { i32, i32, i32, i32, i32, i16, i16, %struct.__pthread_internal_list }
%struct.__pthread_internal_list = type { ptr, ptr }

@.str = private unnamed_addr constant [29 x i8] c"Part index (%d) out of range\00", align 1

; Function Attrs: inlinehint nounwind uwtable
define internal void @internal_exr_unlock(ptr noundef %0) #3 {
  %2 = alloca ptr, align 8
  %3 = alloca ptr, align 8
  store ptr %0, ptr %2, align 8, !tbaa !3
  call void @llvm.lifetime.start.p0(i64 8, ptr %3) #7
  %4 = load ptr, ptr %2, align 8, !tbaa !3
  %5 = ptrtoint ptr %4 to i64
  %6 = inttoptr i64 %5 to ptr
  store ptr %6, ptr %3, align 8, !tbaa !3
  %7 = load ptr, ptr %3, align 8, !tbaa !3
  %8 = getelementptr inbounds nuw %struct._priv_exr_context_t, ptr %7, i32 0, i32 39
  %9 = call i32 @pthread_mutex_unlock(ptr noundef %8) #7
  call void @llvm.lifetime.end.p0(i64 8, ptr %3) #7
  ret void
}

; Function Attrs: inlinehint nounwind uwtable
define internal void @internal_exr_lock(ptr noundef %0) #3 {
  %2 = alloca ptr, align 8
  %3 = alloca ptr, align 8
  store ptr %0, ptr %2, align 8, !tbaa !3
  call void @llvm.lifetime.start.p0(i64 8, ptr %3) #7
  %4 = load ptr, ptr %2, align 8, !tbaa !3
  %5 = ptrtoint ptr %4 to i64
  %6 = inttoptr i64 %5 to ptr
  store ptr %6, ptr %3, align 8, !tbaa !3
  %7 = load ptr, ptr %3, align 8, !tbaa !3
  %8 = getelementptr inbounds nuw %struct._priv_exr_context_t, ptr %7, i32 0, i32 39
  %9 = call i32 @pthread_mutex_lock(ptr noundef %8) #7
  call void @llvm.lifetime.end.p0(i64 8, ptr %3) #7
  ret void
}

; Function Attrs: nounwind uwtable
define i32 @exr_encoding_initialize(ptr noundef %0, i32 noundef %1, ptr noundef %2, ptr noundef %3) #0 {
  %5 = alloca i32, align 4
  %6 = alloca ptr, align 8
  %7 = alloca i32, align 4
  %8 = alloca ptr, align 8
  %9 = alloca ptr, align 8
  %10 = alloca i32, align 4
  %11 = alloca %struct._exr_encode_pipeline, align 8
  %12 = alloca ptr, align 8
  %13 = alloca i32, align 4
  store ptr %0, ptr %6, align 8, !tbaa !3
  store i32 %1, ptr %7, align 4, !tbaa !8
  store ptr %2, ptr %8, align 8, !tbaa !10
  store ptr %3, ptr %9, align 8, !tbaa !11
  call void @llvm.lifetime.start.p0(i64 4, ptr %10) #7
  call void @llvm.lifetime.start.p0(i64 512, ptr %11) #7
  call void @llvm.memset.p0.i64(ptr align 8 %11, i8 0, i64 512, i1 false)
  call void @llvm.lifetime.start.p0(i64 8, ptr %12) #7
  %14 = load ptr, ptr %6, align 8, !tbaa !3
  %15 = icmp ne ptr %14, null
  br i1 %15, label %17, label %16

16:                                               ; preds = %4
  store i32 2, ptr %5, align 4
  store i32 1, ptr %13, align 4
  br label %161

17:                                               ; preds = %4
  %18 = load ptr, ptr %6, align 8, !tbaa !3
  %19 = getelementptr inbounds nuw %struct._priv_exr_context_t, ptr %18, i32 0, i32 0
  %20 = load i8, ptr %19, align 8, !tbaa !13
  %21 = zext i8 %20 to i32
  %22 = icmp eq i32 %21, 1
  br i1 %22, label %23, label %25

23:                                               ; preds = %17
  %24 = load ptr, ptr %6, align 8, !tbaa !3
  call void @internal_exr_lock(ptr noundef %24)
  br label %25

25:                                               ; preds = %23, %17
  %26 = load i32, ptr %7, align 4, !tbaa !8
  %27 = icmp slt i32 %26, 0
  br i1 %27, label %34, label %28

28:                                               ; preds = %25
  %29 = load i32, ptr %7, align 4, !tbaa !8
  %30 = load ptr, ptr %6, align 8, !tbaa !3
  %31 = getelementptr inbounds nuw %struct._priv_exr_context_t, ptr %30, i32 0, i32 34
  %32 = load i32, ptr %31, align 4, !tbaa !28
  %33 = icmp sge i32 %29, %32
  br i1 %33, label %34, label %49

34:                                               ; preds = %28, %25
  %35 = load ptr, ptr %6, align 8, !tbaa !3
  %36 = getelementptr inbounds nuw %struct._priv_exr_context_t, ptr %35, i32 0, i32 0
  %37 = load i8, ptr %36, align 8, !tbaa !13
  %38 = zext i8 %37 to i32
  %39 = icmp eq i32 %38, 1
  br i1 %39, label %40, label %42

40:                                               ; preds = %34
  %41 = load ptr, ptr %6, align 8, !tbaa !3
  call void @internal_exr_unlock(ptr noundef %41)
  br label %42

42:                                               ; preds = %40, %34
  %43 = load ptr, ptr %6, align 8, !tbaa !3
  %44 = getelementptr inbounds nuw %struct._priv_exr_context_t, ptr %43, i32 0, i32 14
  %45 = load ptr, ptr %44, align 8, !tbaa !29
  %46 = load ptr, ptr %6, align 8, !tbaa !3
  %47 = load i32, ptr %7, align 4, !tbaa !8
  %48 = call i32 (ptr, i32, ptr, ...) %45(ptr noundef %46, i32 noundef 4, ptr noundef @.str, i32 noundef %47)
  store i32 %48, ptr %5, align 4
  store i32 1, ptr %13, align 4
  br label %161

49:                                               ; preds = %28
  %50 = load ptr, ptr %6, align 8, !tbaa !3
  %51 = getelementptr inbounds nuw %struct._priv_exr_context_t, ptr %50, i32 0, i32 37
  %52 = load ptr, ptr %51, align 8, !tbaa !30
  %53 = load i32, ptr %7, align 4, !tbaa !8
  %54 = sext i32 %53 to i64
  %55 = getelementptr inbounds ptr, ptr %52, i64 %54
  %56 = load ptr, ptr %55, align 8, !tbaa !31
  store ptr %56, ptr %12, align 8, !tbaa !31
  %57 = load ptr, ptr %8, align 8, !tbaa !10
  %58 = icmp ne ptr %57, null
  br i1 %58, label %59, label %62

59:                                               ; preds = %49
  %60 = load ptr, ptr %9, align 8, !tbaa !11
  %61 = icmp ne ptr %60, null
  br i1 %61, label %77, label %62

62:                                               ; preds = %59, %49
  %63 = load ptr, ptr %6, align 8, !tbaa !3
  %64 = getelementptr inbounds nuw %struct._priv_exr_context_t, ptr %63, i32 0, i32 0
  %65 = load i8, ptr %64, align 8, !tbaa !13
  %66 = zext i8 %65 to i32
  %67 = icmp eq i32 %66, 1
  br i1 %67, label %68, label %70

68:                                               ; preds = %62
  %69 = load ptr, ptr %6, align 8, !tbaa !3
  call void @internal_exr_unlock(ptr noundef %69)
  br label %71

70:                                               ; preds = %62
  br label %71

71:                                               ; preds = %70, %68
  %72 = load ptr, ptr %6, align 8, !tbaa !3
  %73 = getelementptr inbounds nuw %struct._priv_exr_context_t, ptr %72, i32 0, i32 12
  %74 = load ptr, ptr %73, align 8, !tbaa !32
  %75 = load ptr, ptr %6, align 8, !tbaa !3
  %76 = call i32 %74(ptr noundef %75, i32 noundef 3)
  store i32 %76, ptr %5, align 4
  store i32 1, ptr %13, align 4
  br label %161

77:                                               ; preds = %59
  %78 = load ptr, ptr %6, align 8, !tbaa !3
  %79 = getelementptr inbounds nuw %struct._priv_exr_context_t, ptr %78, i32 0, i32 0
  %80 = load i8, ptr %79, align 8, !tbaa !13
  %81 = zext i8 %80 to i32
  %82 = icmp ne i32 %81, 3
  br i1 %82, label %83, label %125

83:                                               ; preds = %77
  %84 = load ptr, ptr %6, align 8, !tbaa !3
  %85 = getelementptr inbounds nuw %struct._priv_exr_context_t, ptr %84, i32 0, i32 0
  %86 = load i8, ptr %85, align 8, !tbaa !13
  %87 = zext i8 %86 to i32
  %88 = icmp ne i32 %87, 4
  br i1 %88, label %89, label %125

89:                                               ; preds = %83
  %90 = load ptr, ptr %6, align 8, !tbaa !3
  %91 = getelementptr inbounds nuw %struct._priv_exr_context_t, ptr %90, i32 0, i32 0
  %92 = load i8, ptr %91, align 8, !tbaa !13
  %93 = zext i8 %92 to i32
  %94 = icmp eq i32 %93, 1
  br i1 %94, label %95, label %110

95:                                               ; preds = %89
  %96 = load ptr, ptr %6, align 8, !tbaa !3
  %97 = getelementptr inbounds nuw %struct._priv_exr_context_t, ptr %96, i32 0, i32 0
  %98 = load i8, ptr %97, align 8, !tbaa !13
  %99 = zext i8 %98 to i32
  %100 = icmp eq i32 %99, 1
  br i1 %100, label %101, label %103

101:                                              ; preds = %95
  %102 = load ptr, ptr %6, align 8, !tbaa !3
  call void @internal_exr_unlock(ptr noundef %102)
  br label %104

103:                                              ; preds = %95
  br label %104

104:                                              ; preds = %103, %101
  %105 = load ptr, ptr %6, align 8, !tbaa !3
  %106 = getelementptr inbounds nuw %struct._priv_exr_context_t, ptr %105, i32 0, i32 12
  %107 = load ptr, ptr %106, align 8, !tbaa !32
  %108 = load ptr, ptr %6, align 8, !tbaa !3
  %109 = call i32 %107(ptr noundef %108, i32 noundef 9)
  store i32 %109, ptr %5, align 4
  store i32 1, ptr %13, align 4
  br label %161

110:                                              ; preds = %89
  %111 = load ptr, ptr %6, align 8, !tbaa !3
  %112 = getelementptr inbounds nuw %struct._priv_exr_context_t, ptr %111, i32 0, i32 0
  %113 = load i8, ptr %112, align 8, !tbaa !13
  %114 = zext i8 %113 to i32
  %115 = icmp eq i32 %114, 1
  br i1 %115, label %116, label %118

116:                                              ; preds = %110
  %117 = load ptr, ptr %6, align 8, !tbaa !3
  call void @internal_exr_unlock(ptr noundef %117)
  br label %119

118:                                              ; preds = %110
  br label %119

119:                                              ; preds = %118, %116
  %120 = load ptr, ptr %6, align 8, !tbaa !3
  %121 = getelementptr inbounds nuw %struct._priv_exr_context_t, ptr %120, i32 0, i32 12
  %122 = load ptr, ptr %121, align 8, !tbaa !32
  %123 = load ptr, ptr %6, align 8, !tbaa !3
  %124 = call i32 %122(ptr noundef %123, i32 noundef 8)
  store i32 %124, ptr %5, align 4
  store i32 1, ptr %13, align 4
  br label %161

125:                                              ; preds = %83, %77
  %126 = load ptr, ptr %9, align 8, !tbaa !11
  call void @llvm.memcpy.p0.p0.i64(ptr align 8 %126, ptr align 8 %11, i64 512, i1 false), !tbaa.struct !33
  %127 = load ptr, ptr %9, align 8, !tbaa !11
  %128 = getelementptr inbounds nuw %struct._exr_encode_pipeline, ptr %127, i32 0, i32 1
  %129 = load ptr, ptr %9, align 8, !tbaa !11
  %130 = getelementptr inbounds nuw %struct._exr_encode_pipeline, ptr %129, i32 0, i32 2
  %131 = load ptr, ptr %9, align 8, !tbaa !11
  %132 = getelementptr inbounds nuw %struct._exr_encode_pipeline, ptr %131, i32 0, i32 29
  %133 = getelementptr inbounds [5 x %struct.exr_coding_channel_info_t], ptr %132, i64 0, i64 0
  %134 = load ptr, ptr %8, align 8, !tbaa !10
  %135 = load ptr, ptr %6, align 8, !tbaa !3
  %136 = load ptr, ptr %12, align 8, !tbaa !31
  %137 = call i32 @internal_coding_fill_channel_info(ptr noundef %128, ptr noundef %130, ptr noundef %133, ptr noundef %134, ptr noundef %135, ptr noundef %136)
  store i32 %137, ptr %10, align 4, !tbaa !8
  %138 = load i32, ptr %10, align 4, !tbaa !8
  %139 = icmp eq i32 %138, 0
  br i1 %139, label %140, label %150

140:                                              ; preds = %125
  %141 = load i32, ptr %7, align 4, !tbaa !8
  %142 = load ptr, ptr %9, align 8, !tbaa !11
  %143 = getelementptr inbounds nuw %struct._exr_encode_pipeline, ptr %142, i32 0, i32 4
  store i32 %141, ptr %143, align 4, !tbaa !38
  %144 = load ptr, ptr %6, align 8, !tbaa !3
  %145 = load ptr, ptr %9, align 8, !tbaa !11
  %146 = getelementptr inbounds nuw %struct._exr_encode_pipeline, ptr %145, i32 0, i32 5
  store ptr %144, ptr %146, align 8, !tbaa !41
  %147 = load ptr, ptr %9, align 8, !tbaa !11
  %148 = getelementptr inbounds nuw %struct._exr_encode_pipeline, ptr %147, i32 0, i32 6
  %149 = load ptr, ptr %8, align 8, !tbaa !10
  call void @llvm.memcpy.p0.p0.i64(ptr align 8 %148, ptr align 8 %149, i64 64, i1 false), !tbaa.struct !42
  br label %150

150:                                              ; preds = %140, %125
  %151 = load ptr, ptr %6, align 8, !tbaa !3
  %152 = getelementptr inbounds nuw %struct._priv_exr_context_t, ptr %151, i32 0, i32 0
  %153 = load i8, ptr %152, align 8, !tbaa !13
  %154 = zext i8 %153 to i32
  %155 = icmp eq i32 %154, 1
  br i1 %155, label %156, label %158

156:                                              ; preds = %150
  %157 = load ptr, ptr %6, align 8, !tbaa !3
  call void @internal_exr_unlock(ptr noundef %157)
  br label %159

158:                                              ; preds = %150
  br label %159

159:                                              ; preds = %158, %156
  %160 = load i32, ptr %10, align 4, !tbaa !8
  store i32 %160, ptr %5, align 4
  store i32 1, ptr %13, align 4
  br label %161

161:                                              ; preds = %159, %119, %104, %71, %42, %16
  call void @llvm.lifetime.end.p0(i64 8, ptr %12) #7
  call void @llvm.lifetime.end.p0(i64 512, ptr %11) #7
  call void @llvm.lifetime.end.p0(i64 4, ptr %10) #7
  %162 = load i32, ptr %5, align 4
  ret i32 %162
}