; Function Attrs: nounwind uwtable
define i32 @exr_encoding_initialize(ptr noundef %0, i32 noundef %1, ptr noundef %2, ptr noundef %3) local_unnamed_addr #0 {
  %.not = icmp eq ptr %0, null
  br i1 %.not, label %71, label %5

5:                                                ; preds = %4
  %6 = load i8, ptr %0, align 8, !tbaa !3
  %7 = icmp eq i8 %6, 1
  br i1 %7, label %8, label %11

8:                                                ; preds = %5
  %9 = getelementptr inbounds nuw i8, ptr %0, i64 504
  %10 = tail call i32 @pthread_mutex_lock(ptr noundef nonnull %9) #5
  br label %11

11:                                               ; preds = %8, %5
  %12 = icmp slt i32 %1, 0
  br i1 %12, label %16, label %13

13:                                               ; preds = %11
  %14 = getelementptr inbounds nuw i8, ptr %0, i64 196
  %15 = load i32, ptr %14, align 4, !tbaa !22
  %.not53 = icmp slt i32 %1, %15
  br i1 %.not53, label %26, label %16

16:                                               ; preds = %13, %11
  %17 = load i8, ptr %0, align 8, !tbaa !3
  %18 = icmp eq i8 %17, 1
  br i1 %18, label %19, label %22

19:                                               ; preds = %16
  %20 = getelementptr inbounds nuw i8, ptr %0, i64 504
  %21 = tail call i32 @pthread_mutex_unlock(ptr noundef nonnull %20) #5
  br label %22

22:                                               ; preds = %19, %16
  %23 = getelementptr inbounds nuw i8, ptr %0, i64 72
  %24 = load ptr, ptr %23, align 8, !tbaa !23
  %25 = tail call i32 (ptr, i32, ptr, ...) %24(ptr noundef nonnull %0, i32 noundef 4, ptr noundef nonnull @.str, i32 noundef %1) #5
  br label %71

26:                                               ; preds = %13
  %27 = getelementptr inbounds nuw i8, ptr %0, i64 472
  %28 = load ptr, ptr %27, align 8, !tbaa !24
  %29 = zext nneg i32 %1 to i64
  %30 = getelementptr inbounds nuw ptr, ptr %28, i64 %29
  %31 = load ptr, ptr %30, align 8, !tbaa !25
  %32 = icmp ne ptr %2, null
  %33 = icmp ne ptr %3, null
  %or.cond = and i1 %32, %33
  %34 = load i8, ptr %0, align 8, !tbaa !3
  br i1 %or.cond, label %44, label %35

35:                                               ; preds = %26
  %36 = icmp eq i8 %34, 1
  br i1 %36, label %37, label %40

37:                                               ; preds = %35
  %38 = getelementptr inbounds nuw i8, ptr %0, i64 504
  %39 = tail call i32 @pthread_mutex_unlock(ptr noundef nonnull %38) #5
  br label %40

40:                                               ; preds = %35, %37
  %41 = getelementptr inbounds nuw i8, ptr %0, i64 56
  %42 = load ptr, ptr %41, align 8, !tbaa !26
  %43 = tail call i32 %42(ptr noundef nonnull %0, i32 noundef 3) #5
  br label %71

44:                                               ; preds = %26
  switch i8 %34, label %51 [
    i8 3, label %55
    i8 4, label %55
    i8 1, label %45
  ]

45:                                               ; preds = %44
  %46 = getelementptr inbounds nuw i8, ptr %0, i64 504
  %47 = tail call i32 @pthread_mutex_unlock(ptr noundef nonnull %46) #5
  %48 = getelementptr inbounds nuw i8, ptr %0, i64 56
  %49 = load ptr, ptr %48, align 8, !tbaa !26
  %50 = tail call i32 %49(ptr noundef nonnull %0, i32 noundef 9) #5
  br label %71

51:                                               ; preds = %44
  %52 = getelementptr inbounds nuw i8, ptr %0, i64 56
  %53 = load ptr, ptr %52, align 8, !tbaa !26
  %54 = tail call i32 %53(ptr noundef nonnull %0, i32 noundef 8) #5
  br label %71

55:                                               ; preds = %44, %44
  tail call void @llvm.memset.p0.i64(ptr noundef nonnull align 8 dereferenceable(512) %3, i8 0, i64 512, i1 false)
  %56 = getelementptr inbounds nuw i8, ptr %3, i64 8
  %57 = getelementptr inbounds nuw i8, ptr %3, i64 16
  %58 = getelementptr inbounds nuw i8, ptr %3, i64 272
  %59 = tail call i32 @internal_coding_fill_channel_info(ptr noundef nonnull %56, ptr noundef nonnull %57, ptr noundef nonnull %58, ptr noundef nonnull %2, ptr noundef nonnull %0, ptr noundef %31) #5
  %60 = icmp eq i32 %59, 0
  br i1 %60, label %61, label %65

61:                                               ; preds = %55
  %62 = getelementptr inbounds nuw i8, ptr %3, i64 20
  store i32 %1, ptr %62, align 4, !tbaa !27
  %63 = getelementptr inbounds nuw i8, ptr %3, i64 24
  store ptr %0, ptr %63, align 8, !tbaa !31
  %64 = getelementptr inbounds nuw i8, ptr %3, i64 32
  tail call void @llvm.memcpy.p0.p0.i64(ptr noundef nonnull align 8 dereferenceable(64) %64, ptr noundef nonnull align 8 dereferenceable(64) %2, i64 64, i1 false), !tbaa.struct !32
  br label %65

65:                                               ; preds = %61, %55
  %66 = load i8, ptr %0, align 8, !tbaa !3
  %67 = icmp eq i8 %66, 1
  br i1 %67, label %68, label %71

68:                                               ; preds = %65
  %69 = getelementptr inbounds nuw i8, ptr %0, i64 504
  %70 = tail call i32 @pthread_mutex_unlock(ptr noundef nonnull %69) #5
  br label %71

71:                                               ; preds = %68, %65, %4, %51, %45, %40, %22
  %.0 = phi i32 [ %25, %22 ], [ %50, %45 ], [ %54, %51 ], [ %43, %40 ], [ 2, %4 ], [ %59, %65 ], [ %59, %68 ]
  ret i32 %.0
}